target datalayout = "e-m:e-p270:32:32-p271:32:32-p272:64:64-i64:64-i128:128-f80:128-n8:16:32:64-S128"
target triple = "x86_64-pc-linux-gnu"

; Function Attrs: inlinehint nounwind uwtable
define internal i32 @pg_leftmost_one_pos64(i64 noundef %0) #7 {
  %2 = alloca i64, align 8
  store i64 %0, ptr %2, align 8
  %3 = load i64, ptr %2, align 8
  %4 = call i64 @llvm.ctlz.i64(i64 %3, i1 true)
  %5 = trunc i64 %4 to i32
  %6 = sub i32 63, %5
  ret i32 %6
}

; Function Attrs: inlinehint nounwind uwtable
define internal i64 @pg_ceil_log2_64(i64 noundef %0) #7 {
  %2 = alloca i64, align 8
  %3 = alloca i64, align 8
  store i64 %0, ptr %3, align 8
  %4 = load i64, ptr %3, align 8
  %5 = icmp ult i64 %4, 2
  br i1 %5, label %6, label %7

6:                                                ; preds = %1
  store i64 0, ptr %2, align 8
  br label %13

7:                                                ; preds = %1
  %8 = load i64, ptr %3, align 8
  %9 = sub i64 %8, 1
  %10 = call i32 @pg_leftmost_one_pos64(i64 noundef %9)
  %11 = add i32 %10, 1
  %12 = sext i32 %11 to i64
  store i64 %12, ptr %2, align 8
  br label %13

13:                                               ; preds = %7, %6
  %14 = load i64, ptr %2, align 8
  ret i64 %14
}

; Function Attrs: nounwind uwtable
define dso_local i32 @my_log2(i64 noundef %0) #0 {
  %2 = alloca i64, align 8
  store i64 %0, ptr %2, align 8
  %3 = load i64, ptr %2, align 8
  %4 = icmp sgt i64 %3, 4611686018427387903
  br i1 %4, label %5, label %6

5:                                                ; preds = %1
  store i64 4611686018427387903, ptr %2, align 8
  br label %6

6:                                                ; preds = %5, %1
  %7 = load i64, ptr %2, align 8
  %8 = call i64 @pg_ceil_log2_64(i64 noundef %7)
  %9 = trunc i64 %8 to i32
  ret i32 %9
}

; Function Attrs: nounwind uwtable
define internal i32 @choose_nelem_alloc(i64 noundef %0) #0 {
  %2 = alloca i64, align 8
  %3 = alloca i32, align 4
  %4 = alloca i64, align 8
  %5 = alloca i64, align 8
  store i64 %0, ptr %2, align 8
  call void @llvm.lifetime.start.p0(i64 4, ptr %3) #11
  call void @llvm.lifetime.start.p0(i64 8, ptr %4) #11
  call void @llvm.lifetime.start.p0(i64 8, ptr %5) #11
  %6 = load i64, ptr %2, align 8
  %7 = add i64 %6, 7
  %8 = and i64 %7, -8
  %9 = add i64 16, %8
  store i64 %9, ptr %4, align 8
  store i64 128, ptr %5, align 8
  br label %10

10:                                               ; preds = %17, %1
  %11 = load i64, ptr %5, align 8
  %12 = shl i64 %11, 1
  store i64 %12, ptr %5, align 8
  %13 = load i64, ptr %5, align 8
  %14 = load i64, ptr %4, align 8
  %15 = udiv i64 %13, %14
  %16 = trunc i64 %15 to i32
  store i32 %16, ptr %3, align 4
  br label %17

17:                                               ; preds = %10
  %18 = load i32, ptr %3, align 4
  %19 = icmp slt i32 %18, 32
  br i1 %19, label %10, label %20, !llvm.loop !17

20:                                               ; preds = %17
  %21 = load i32, ptr %3, align 4
  call void @llvm.lifetime.end.p0(i64 8, ptr %5) #11
  call void @llvm.lifetime.end.p0(i64 8, ptr %4) #11
  call void @llvm.lifetime.end.p0(i64 4, ptr %3) #11
  ret i32 %21
}

; Function Attrs: nounwind uwtable
define internal i64 @next_pow2_long(i64 noundef %0) #0 {
  %2 = alloca i64, align 8
  store i64 %0, ptr %2, align 8
  %3 = load i64, ptr %2, align 8
  %4 = call i32 @my_log2(i64 noundef %3)
  %5 = zext i32 %4 to i64
  %6 = shl i64 1, %5
  ret i64 %6
}

; Function Attrs: nounwind uwtable
define dso_local i64 @hash_estimate_size(i64 noundef %0, i64 noundef %1) #0 {
  %3 = alloca i64, align 8
  %4 = alloca i64, align 8
  %5 = alloca i64, align 8
  %6 = alloca i64, align 8
  %7 = alloca i64, align 8
  %8 = alloca i64, align 8
  %9 = alloca i64, align 8
  %10 = alloca i64, align 8
  %11 = alloca i64, align 8
  store i64 %0, ptr %3, align 8
  store i64 %1, ptr %4, align 8
  call void @llvm.lifetime.start.p0(i64 8, ptr %5) #11
  call void @llvm.lifetime.start.p0(i64 8, ptr %6) #11
  call void @llvm.lifetime.start.p0(i64 8, ptr %7) #11
  call void @llvm.lifetime.start.p0(i64 8, ptr %8) #11
  call void @llvm.lifetime.start.p0(i64 8, ptr %9) #11
  call void @llvm.lifetime.start.p0(i64 8, ptr %10) #11
  call void @llvm.lifetime.start.p0(i64 8, ptr %11) #11
  %12 = load i64, ptr %3, align 8
  %13 = call i64 @next_pow2_long(i64 noundef %12)
  store i64 %13, ptr %6, align 8
  %14 = load i64, ptr %6, align 8
  %15 = sub i64 %14, 1
  %16 = sdiv i64 %15, 256
  %17 = add i64 %16, 1
  %18 = call i64 @next_pow2_long(i64 noundef %17)
  store i64 %18, ptr %7, align 8
  store i64 256, ptr %8, align 8
  br label %19

19:                                               ; preds = %23, %2
  %20 = load i64, ptr %8, align 8
  %21 = load i64, ptr %7, align 8
  %22 = icmp slt i64 %20, %21
  br i1 %22, label %23, label %26

23:                                               ; preds = %19
  %24 = load i64, ptr %8, align 8
  %25 = shl i64 %24, 1
  store i64 %25, ptr %8, align 8
  br label %19, !llvm.loop !16

26:                                               ; preds = %19
  store i64 848, ptr %5, align 8
  %27 = load i64, ptr %5, align 8
  %28 = load i64, ptr %8, align 8
  %29 = call i64 @mul_size(i64 noundef %28, i64 noundef 8)
  %30 = call i64 @add_size(i64 noundef %27, i64 noundef %29)
  store i64 %30, ptr %5, align 8
  %31 = load i64, ptr %5, align 8
  %32 = load i64, ptr %7, align 8
  %33 = call i64 @mul_size(i64 noundef %32, i64 noundef 2048)
  %34 = call i64 @add_size(i64 noundef %31, i64 noundef %33)
  store i64 %34, ptr %5, align 8
  %35 = load i64, ptr %4, align 8
  %36 = call i32 @choose_nelem_alloc(i64 noundef %35)
  %37 = sext i32 %36 to i64
  store i64 %37, ptr %11, align 8
  %38 = load i64, ptr %3, align 8
  %39 = sub i64 %38, 1
  %40 = load i64, ptr %11, align 8
  %41 = sdiv i64 %39, %40
  %42 = add i64 %41, 1
  store i64 %42, ptr %9, align 8
  %43 = load i64, ptr %4, align 8
  %44 = add i64 %43, 7
  %45 = and i64 %44, -8
  %46 = add i64 16, %45
  store i64 %46, ptr %10, align 8
  %47 = load i64, ptr %5, align 8
  %48 = load i64, ptr %9, align 8
  %49 = load i64, ptr %11, align 8
  %50 = load i64, ptr %10, align 8
  %51 = call i64 @mul_size(i64 noundef %49, i64 noundef %50)
  %52 = call i64 @mul_size(i64 noundef %48, i64 noundef %51)
  %53 = call i64 @add_size(i64 noundef %47, i64 noundef %52)
  store i64 %53, ptr %5, align 8
  %54 = load i64, ptr %5, align 8
  call void @llvm.lifetime.end.p0(i64 8, ptr %11) #11
  call void @llvm.lifetime.end.p0(i64 8, ptr %10) #11
  call void @llvm.lifetime.end.p0(i64 8, ptr %9) #11
  call void @llvm.lifetime.end.p0(i64 8, ptr %8) #11
  call void @llvm.lifetime.end.p0(i64 8, ptr %7) #11
  call void @llvm.lifetime.end.p0(i64 8, ptr %6) #11
  call void @llvm.lifetime.end.p0(i64 8, ptr %5) #11
  ret i64 %54
}