; Function Attrs: nounwind uwtable
define dso_local i64 @hash_estimate_size(i64 noundef %0, i64 noundef %1) local_unnamed_addr #0 {
  %spec.store.select.i.i = tail call i64 @llvm.smin.i64(i64 %0, i64 4611686018427387903)
  %3 = add i64 %spec.store.select.i.i, -1
  %4 = tail call range(i64 0, 65) i64 @llvm.ctlz.i64(i64 range(i64 1, -1) %3, i1 false)
  %5 = sub nsw i64 0, %4
  %6 = and i64 %5, 63
  %notmask = shl nsw i64 -1, %6
  %7 = xor i64 %notmask, -1
  %8 = lshr i64 %7, 8
  %9 = tail call range(i64 0, 65) i64 @llvm.ctlz.i64(i64 range(i64 1, -1) %8, i1 false)
  %10 = sub nsw i64 0, %9
  %11 = and i64 %10, 63
  %12 = shl nuw i64 1, %11
  br label %13

13:                                               ; preds = %13, %2
  %.0 = phi i64 [ 256, %2 ], [ %15, %13 ]
  %14 = icmp slt i64 %.0, %12
  %15 = shl i64 %.0, 1
  br i1 %14, label %13, label %16, !llvm.loop !16

16:                                               ; preds = %13
  %17 = tail call i64 @mul_size(i64 noundef %.0, i64 noundef 8) #17
  %18 = tail call i64 @add_size(i64 noundef 848, i64 noundef %17) #17
  %19 = tail call i64 @mul_size(i64 noundef %12, i64 noundef 2048) #17
  %20 = tail call i64 @add_size(i64 noundef %18, i64 noundef %19) #17
  %21 = add i64 %1, 7
  %22 = and i64 %21, -8
  %23 = add i64 %22, 16
  br label %24

24:                                               ; preds = %24, %16
  %.0.i = phi i64 [ 128, %16 ], [ %25, %24 ]
  %25 = shl i64 %.0.i, 1
  %26 = udiv i64 %25, %23
  %27 = trunc i64 %26 to i32
  %28 = icmp slt i32 %27, 32
  br i1 %28, label %24, label %choose_nelem_alloc.exit, !llvm.loop !9

choose_nelem_alloc.exit:                          ; preds = %24
  %29 = and i64 %26, 2147483647
  %30 = add i64 %0, -1
  %31 = sdiv i64 %30, %29
  %32 = add nsw i64 %31, 1
  %33 = tail call i64 @mul_size(i64 noundef %29, i64 noundef %23) #17
  %34 = tail call i64 @mul_size(i64 noundef %32, i64 noundef %33) #17
  %35 = tail call i64 @add_size(i64 noundef %20, i64 noundef %34) #17
  ret i64 %35
}